target datalayout = "e-m:e-p270:32:32-p271:32:32-p272:64:64-i64:64-i128:128-f80:128-n8:16:32:64-S128"
target triple = "x86_64-pc-linux-gnu"

%struct.ParseEnv = type { i32, i32, ptr, ptr, i32, i32, i32, ptr, ptr, ptr, ptr, ptr, i32, i32, i32, i32, [8 x %struct.MemEnv], ptr, i32, i32, i32, i32, ptr, ptr, i32, i32 }
%struct.MemEnv = type { ptr, ptr }
%struct._Node = type { %union.anon.35 }
%union.anon.35 = type { %struct.BagNode }
%struct.BagNode = type { i32, i32, ptr, ptr, i32, %union.anon.37, i32, i32, i32, i32, i32 }
%union.anon.37 = type { %struct.anon.40 }
%struct.anon.40 = type { ptr, ptr }
%struct.anon.36 = type { i32, i32, ptr, ptr }
%struct.ConsAltNode = type { i32, i32, ptr, ptr, ptr }
%struct.BackRefNode = type { i32, i32, ptr, i32, [6 x i32], ptr, i32 }
%struct.QuantNode = type { i32, i32, ptr, ptr, i32, i32, i32, i32, ptr, ptr, i32, i32 }
%struct.AnchorNode = type { i32, i32, ptr, ptr, i32, i32, i32, i32, ptr }

; Function Attrs: nounwind uwtable
define internal i32 @is_ancestor_node(ptr noundef %0, ptr noundef %1) #0 {
  %3 = alloca i32, align 4
  %4 = alloca ptr, align 8
  %5 = alloca ptr, align 8
  %6 = alloca ptr, align 8
  %7 = alloca i32, align 4
  store ptr %0, ptr %4, align 8, !tbaa !47
  store ptr %1, ptr %5, align 8, !tbaa !47
  call void @llvm.lifetime.start.p0(i64 8, ptr %6) #9
  br label %8

8:                                                ; preds = %19, %2
  %9 = load ptr, ptr %5, align 8, !tbaa !47
  %10 = getelementptr inbounds nuw %struct._Node, ptr %9, i32 0, i32 0
  %11 = getelementptr inbounds nuw %struct.anon.36, ptr %10, i32 0, i32 2
  %12 = load ptr, ptr %11, align 8, !tbaa !32
  store ptr %12, ptr %6, align 8, !tbaa !47
  %13 = icmp ne ptr %12, null
  br i1 %13, label %14, label %21

14:                                               ; preds = %8
  %15 = load ptr, ptr %6, align 8, !tbaa !47
  %16 = load ptr, ptr %4, align 8, !tbaa !47
  %17 = icmp eq ptr %15, %16
  br i1 %17, label %18, label %19

18:                                               ; preds = %14
  store i32 1, ptr %3, align 4
  store i32 1, ptr %7, align 4
  br label %22

19:                                               ; preds = %14
  %20 = load ptr, ptr %6, align 8, !tbaa !47
  store ptr %20, ptr %5, align 8, !tbaa !47
  br label %8, !llvm.loop !272

21:                                               ; preds = %8
  store i32 0, ptr %3, align 4
  store i32 1, ptr %7, align 4
  br label %22

22:                                               ; preds = %21, %18
  call void @llvm.lifetime.end.p0(i64 8, ptr %6) #9
  %23 = load i32, ptr %3, align 4
  ret i32 %23
}

; Function Attrs: nounwind uwtable
define internal void @set_empty_status_check_trav(ptr noundef %0, ptr noundef %1) #0 {
  %3 = alloca ptr, align 8
  %4 = alloca ptr, align 8
  %5 = alloca ptr, align 8
  %6 = alloca i32, align 4
  %7 = alloca ptr, align 8
  %8 = alloca i32, align 4
  %9 = alloca ptr, align 8
  %10 = alloca ptr, align 8
  %11 = alloca ptr, align 8
  %12 = alloca ptr, align 8
  store ptr %0, ptr %3, align 8, !tbaa !47
  store ptr %1, ptr %4, align 8, !tbaa !15
  %13 = load ptr, ptr %3, align 8, !tbaa !47
  %14 = getelementptr inbounds nuw %struct._Node, ptr %13, i32 0, i32 0
  %15 = getelementptr inbounds nuw %struct.anon.36, ptr %14, i32 0, i32 0
  %16 = load i32, ptr %15, align 8, !tbaa !32
  switch i32 %16, label %209 [
    i32 7, label %17
    i32 8, label %17
    i32 6, label %31
    i32 4, label %48
    i32 5, label %54
    i32 3, label %99
  ]

17:                                               ; preds = %2, %2
  br label %18

18:                                               ; preds = %24, %17
  %19 = load ptr, ptr %3, align 8, !tbaa !47
  %20 = getelementptr inbounds nuw %struct._Node, ptr %19, i32 0, i32 0
  %21 = getelementptr inbounds nuw %struct.ConsAltNode, ptr %20, i32 0, i32 3
  %22 = load ptr, ptr %21, align 8, !tbaa !32
  %23 = load ptr, ptr %4, align 8, !tbaa !15
  call void @set_empty_status_check_trav(ptr noundef %22, ptr noundef %23)
  br label %24

24:                                               ; preds = %18
  %25 = load ptr, ptr %3, align 8, !tbaa !47
  %26 = getelementptr inbounds nuw %struct._Node, ptr %25, i32 0, i32 0
  %27 = getelementptr inbounds nuw %struct.ConsAltNode, ptr %26, i32 0, i32 4
  %28 = load ptr, ptr %27, align 8, !tbaa !32
  store ptr %28, ptr %3, align 8, !tbaa !47
  %29 = icmp ne ptr %28, null
  br i1 %29, label %18, label %30, !llvm.loop !197

30:                                               ; preds = %24
  br label %210

31:                                               ; preds = %2
  call void @llvm.lifetime.start.p0(i64 8, ptr %5) #9
  %32 = load ptr, ptr %3, align 8, !tbaa !47
  %33 = getelementptr inbounds nuw %struct._Node, ptr %32, i32 0, i32 0
  store ptr %33, ptr %5, align 8, !tbaa !15
  %34 = load ptr, ptr %5, align 8, !tbaa !15
  %35 = getelementptr inbounds nuw %struct.AnchorNode, ptr %34, i32 0, i32 4
  %36 = load i32, ptr %35, align 8, !tbaa !184
  %37 = icmp slt i32 %36, 16
  br i1 %37, label %39, label %38

38:                                               ; preds = %31
  store i32 2, ptr %6, align 4
  br label %45

39:                                               ; preds = %31
  %40 = load ptr, ptr %3, align 8, !tbaa !47
  %41 = getelementptr inbounds nuw %struct._Node, ptr %40, i32 0, i32 0
  %42 = getelementptr inbounds nuw %struct.anon.36, ptr %41, i32 0, i32 3
  %43 = load ptr, ptr %42, align 8, !tbaa !32
  %44 = load ptr, ptr %4, align 8, !tbaa !15
  call void @set_empty_status_check_trav(ptr noundef %43, ptr noundef %44)
  store i32 0, ptr %6, align 4
  br label %45

45:                                               ; preds = %39, %38
  call void @llvm.lifetime.end.p0(i64 8, ptr %5) #9
  %46 = load i32, ptr %6, align 4
  switch i32 %46, label %211 [
    i32 0, label %47
    i32 2, label %210
  ]

47:                                               ; preds = %45
  br label %210

48:                                               ; preds = %2
  %49 = load ptr, ptr %3, align 8, !tbaa !47
  %50 = getelementptr inbounds nuw %struct._Node, ptr %49, i32 0, i32 0
  %51 = getelementptr inbounds nuw %struct.anon.36, ptr %50, i32 0, i32 3
  %52 = load ptr, ptr %51, align 8, !tbaa !32
  %53 = load ptr, ptr %4, align 8, !tbaa !15
  call void @set_empty_status_check_trav(ptr noundef %52, ptr noundef %53)
  br label %210

54:                                               ; preds = %2
  %55 = load ptr, ptr %3, align 8, !tbaa !47
  %56 = getelementptr inbounds nuw %struct._Node, ptr %55, i32 0, i32 0
  %57 = getelementptr inbounds nuw %struct.anon.36, ptr %56, i32 0, i32 3
  %58 = load ptr, ptr %57, align 8, !tbaa !32
  %59 = icmp ne ptr %58, null
  br i1 %59, label %60, label %66

60:                                               ; preds = %54
  %61 = load ptr, ptr %3, align 8, !tbaa !47
  %62 = getelementptr inbounds nuw %struct._Node, ptr %61, i32 0, i32 0
  %63 = getelementptr inbounds nuw %struct.anon.36, ptr %62, i32 0, i32 3
  %64 = load ptr, ptr %63, align 8, !tbaa !32
  %65 = load ptr, ptr %4, align 8, !tbaa !15
  call void @set_empty_status_check_trav(ptr noundef %64, ptr noundef %65)
  br label %66

66:                                               ; preds = %60, %54
  call void @llvm.lifetime.start.p0(i64 8, ptr %7) #9
  %67 = load ptr, ptr %3, align 8, !tbaa !47
  %68 = getelementptr inbounds nuw %struct._Node, ptr %67, i32 0, i32 0
  store ptr %68, ptr %7, align 8, !tbaa !15
  %69 = load ptr, ptr %7, align 8, !tbaa !15
  %70 = getelementptr inbounds nuw %struct.BagNode, ptr %69, i32 0, i32 4
  %71 = load i32, ptr %70, align 8, !tbaa !156
  %72 = icmp eq i32 %71, 3
  br i1 %72, label %73, label %98

73:                                               ; preds = %66
  %74 = load ptr, ptr %7, align 8, !tbaa !15
  %75 = getelementptr inbounds nuw %struct.BagNode, ptr %74, i32 0, i32 5
  %76 = getelementptr inbounds nuw %struct.anon.40, ptr %75, i32 0, i32 0
  %77 = load ptr, ptr %76, align 8, !tbaa !32
  %78 = icmp ne ptr %77, null
  br i1 %78, label %79, label %85

79:                                               ; preds = %73
  %80 = load ptr, ptr %7, align 8, !tbaa !15
  %81 = getelementptr inbounds nuw %struct.BagNode, ptr %80, i32 0, i32 5
  %82 = getelementptr inbounds nuw %struct.anon.40, ptr %81, i32 0, i32 0
  %83 = load ptr, ptr %82, align 8, !tbaa !32
  %84 = load ptr, ptr %4, align 8, !tbaa !15
  call void @set_empty_status_check_trav(ptr noundef %83, ptr noundef %84)
  br label %85

85:                                               ; preds = %79, %73
  %86 = load ptr, ptr %7, align 8, !tbaa !15
  %87 = getelementptr inbounds nuw %struct.BagNode, ptr %86, i32 0, i32 5
  %88 = getelementptr inbounds nuw %struct.anon.40, ptr %87, i32 0, i32 1
  %89 = load ptr, ptr %88, align 8, !tbaa !32
  %90 = icmp ne ptr %89, null
  br i1 %90, label %91, label %97

91:                                               ; preds = %85
  %92 = load ptr, ptr %7, align 8, !tbaa !15
  %93 = getelementptr inbounds nuw %struct.BagNode, ptr %92, i32 0, i32 5
  %94 = getelementptr inbounds nuw %struct.anon.40, ptr %93, i32 0, i32 1
  %95 = load ptr, ptr %94, align 8, !tbaa !32
  %96 = load ptr, ptr %4, align 8, !tbaa !15
  call void @set_empty_status_check_trav(ptr noundef %95, ptr noundef %96)
  br label %97

97:                                               ; preds = %91, %85
  br label %98

98:                                               ; preds = %97, %66
  call void @llvm.lifetime.end.p0(i64 8, ptr %7) #9
  br label %210

99:                                               ; preds = %2
  call void @llvm.lifetime.start.p0(i64 4, ptr %8) #9
  call void @llvm.lifetime.start.p0(i64 8, ptr %9) #9
  call void @llvm.lifetime.start.p0(i64 8, ptr %10) #9
  %100 = load ptr, ptr %4, align 8, !tbaa !15
  %101 = getelementptr inbounds nuw %struct.ParseEnv, ptr %100, i32 0, i32 17
  %102 = load ptr, ptr %101, align 8, !tbaa !50
  %103 = icmp ne ptr %102, null
  br i1 %103, label %104, label %108

104:                                              ; preds = %99
  %105 = load ptr, ptr %4, align 8, !tbaa !15
  %106 = getelementptr inbounds nuw %struct.ParseEnv, ptr %105, i32 0, i32 17
  %107 = load ptr, ptr %106, align 8, !tbaa !50
  br label %112

108:                                              ; preds = %99
  %109 = load ptr, ptr %4, align 8, !tbaa !15
  %110 = getelementptr inbounds nuw %struct.ParseEnv, ptr %109, i32 0, i32 16
  %111 = getelementptr inbounds [8 x %struct.MemEnv], ptr %110, i64 0, i64 0
  br label %112

112:                                              ; preds = %108, %104
  %113 = phi ptr [ %107, %104 ], [ %111, %108 ]
  store ptr %113, ptr %10, align 8, !tbaa !15
  call void @llvm.lifetime.start.p0(i64 8, ptr %11) #9
  %114 = load ptr, ptr %3, align 8, !tbaa !47
  %115 = getelementptr inbounds nuw %struct._Node, ptr %114, i32 0, i32 0
  store ptr %115, ptr %11, align 8, !tbaa !15
  %116 = load ptr, ptr %11, align 8, !tbaa !15
  %117 = getelementptr inbounds nuw %struct.BackRefNode, ptr %116, i32 0, i32 5
  %118 = load ptr, ptr %117, align 8, !tbaa !105
  %119 = icmp ne ptr %118, null
  br i1 %119, label %120, label %124

120:                                              ; preds = %112
  %121 = load ptr, ptr %11, align 8, !tbaa !15
  %122 = getelementptr inbounds nuw %struct.BackRefNode, ptr %121, i32 0, i32 5
  %123 = load ptr, ptr %122, align 8, !tbaa !105
  br label %128

124:                                              ; preds = %112
  %125 = load ptr, ptr %11, align 8, !tbaa !15
  %126 = getelementptr inbounds nuw %struct.BackRefNode, ptr %125, i32 0, i32 4
  %127 = getelementptr inbounds [6 x i32], ptr %126, i64 0, i64 0
  br label %128

128:                                              ; preds = %124, %120
  %129 = phi ptr [ %123, %120 ], [ %127, %124 ]
  store ptr %129, ptr %9, align 8, !tbaa !104
  store i32 0, ptr %8, align 4, !tbaa !4
  br label %130

130:                                              ; preds = %205, %128
  %131 = load i32, ptr %8, align 4, !tbaa !4
  %132 = load ptr, ptr %11, align 8, !tbaa !15
  %133 = getelementptr inbounds nuw %struct.BackRefNode, ptr %132, i32 0, i32 3
  %134 = load i32, ptr %133, align 8, !tbaa !103
  %135 = icmp slt i32 %131, %134
  br i1 %135, label %136, label %208

136:                                              ; preds = %130
  call void @llvm.lifetime.start.p0(i64 8, ptr %12) #9
  %137 = load ptr, ptr %10, align 8, !tbaa !15
  %138 = load ptr, ptr %9, align 8, !tbaa !104
  %139 = load i32, ptr %8, align 4, !tbaa !4
  %140 = sext i32 %139 to i64
  %141 = getelementptr inbounds i32, ptr %138, i64 %140
  %142 = load i32, ptr %141, align 4, !tbaa !4
  %143 = sext i32 %142 to i64
  %144 = getelementptr inbounds %struct.MemEnv, ptr %137, i64 %143
  %145 = getelementptr inbounds nuw %struct.MemEnv, ptr %144, i32 0, i32 1
  %146 = load ptr, ptr %145, align 8, !tbaa !196
  store ptr %146, ptr %12, align 8, !tbaa !47
  %147 = load ptr, ptr %12, align 8, !tbaa !47
  %148 = icmp ne ptr %147, null
  br i1 %148, label %149, label %204

149:                                              ; preds = %136
  %150 = load ptr, ptr %12, align 8, !tbaa !47
  %151 = load ptr, ptr %3, align 8, !tbaa !47
  %152 = call i32 @is_ancestor_node(ptr noundef %150, ptr noundef %151)
  %153 = icmp ne i32 %152, 0
  br i1 %153, label %203, label %154

154:                                              ; preds = %149
  br label %155

155:                                              ; preds = %154
  %156 = load ptr, ptr %9, align 8, !tbaa !104
  %157 = load i32, ptr %8, align 4, !tbaa !4
  %158 = sext i32 %157 to i64
  %159 = getelementptr inbounds i32, ptr %156, i64 %158
  %160 = load i32, ptr %159, align 4, !tbaa !4
  %161 = icmp slt i32 %160, 32
  br i1 %161, label %162, label %181

162:                                              ; preds = %155
  %163 = load ptr, ptr %9, align 8, !tbaa !104
  %164 = load i32, ptr %8, align 4, !tbaa !4
  %165 = sext i32 %164 to i64
  %166 = getelementptr inbounds i32, ptr %163, i64 %165
  %167 = load i32, ptr %166, align 4, !tbaa !4
  %168 = icmp ne i32 %167, 0
  br i1 %168, label %169, label %181

169:                                              ; preds = %162
  %170 = load ptr, ptr %9, align 8, !tbaa !104
  %171 = load i32, ptr %8, align 4, !tbaa !4
  %172 = sext i32 %171 to i64
  %173 = getelementptr inbounds i32, ptr %170, i64 %172
  %174 = load i32, ptr %173, align 4, !tbaa !4
  %175 = shl i32 1, %174
  %176 = load ptr, ptr %12, align 8, !tbaa !47
  %177 = getelementptr inbounds nuw %struct._Node, ptr %176, i32 0, i32 0
  %178 = getelementptr inbounds nuw %struct.QuantNode, ptr %177, i32 0, i32 11
  %179 = load i32, ptr %178, align 4, !tbaa !32
  %180 = or i32 %179, %175
  store i32 %180, ptr %178, align 4, !tbaa !32
  br label %181

181:                                              ; preds = %169, %162, %155
  br label %182

182:                                              ; preds = %181
  br label %183

183:                                              ; preds = %182
  %184 = load ptr, ptr %12, align 8, !tbaa !47
  %185 = getelementptr inbounds nuw %struct._Node, ptr %184, i32 0, i32 0
  %186 = getelementptr inbounds nuw %struct.anon.36, ptr %185, i32 0, i32 1
  %187 = load i32, ptr %186, align 4, !tbaa !32
  %188 = or i32 %187, 1048576
  store i32 %188, ptr %186, align 4, !tbaa !32
  %189 = load ptr, ptr %10, align 8, !tbaa !15
  %190 = load ptr, ptr %9, align 8, !tbaa !104
  %191 = load i32, ptr %8, align 4, !tbaa !4
  %192 = sext i32 %191 to i64
  %193 = getelementptr inbounds i32, ptr %190, i64 %192
  %194 = load i32, ptr %193, align 4, !tbaa !4
  %195 = sext i32 %194 to i64
  %196 = getelementptr inbounds %struct.MemEnv, ptr %189, i64 %195
  %197 = getelementptr inbounds nuw %struct.MemEnv, ptr %196, i32 0, i32 0
  %198 = load ptr, ptr %197, align 8, !tbaa !177
  %199 = getelementptr inbounds nuw %struct._Node, ptr %198, i32 0, i32 0
  %200 = getelementptr inbounds nuw %struct.anon.36, ptr %199, i32 0, i32 1
  %201 = load i32, ptr %200, align 4, !tbaa !32
  %202 = or i32 %201, 1048576
  store i32 %202, ptr %200, align 4, !tbaa !32
  br label %203

203:                                              ; preds = %183, %149
  br label %204

204:                                              ; preds = %203, %136
  call void @llvm.lifetime.end.p0(i64 8, ptr %12) #9
  br label %205

205:                                              ; preds = %204
  %206 = load i32, ptr %8, align 4, !tbaa !4
  %207 = add nsw i32 %206, 1
  store i32 %207, ptr %8, align 4, !tbaa !4
  br label %130, !llvm.loop !198

208:                                              ; preds = %130
  call void @llvm.lifetime.end.p0(i64 8, ptr %11) #9
  call void @llvm.lifetime.end.p0(i64 8, ptr %10) #9
  call void @llvm.lifetime.end.p0(i64 8, ptr %9) #9
  call void @llvm.lifetime.end.p0(i64 4, ptr %8) #9
  br label %210

209:                                              ; preds = %2
  br label %210

210:                                              ; preds = %209, %208, %98, %48, %47, %45, %30
  ret void

211:                                              ; preds = %45
  unreachable
}